target datalayout = "e-m:e-p270:32:32-p271:32:32-p272:64:64-i64:64-i128:128-f80:128-n8:16:32:64-S128"
target triple = "x86_64-pc-linux-gnu"

@hf_kafka_transactional_id = internal global i32 0, align 4
@hf_kafka_required_acks = internal global i32 0, align 4
@hf_kafka_timeout = internal global i32 0, align 4

; Function Attrs: null_pointer_is_valid sspstrong uwtable
define internal i32 @dissect_kafka_produce_request(ptr noundef %0, ptr noundef %1, ptr noundef %2, i32 noundef %3, i16 noundef signext %4) #0 {
  %6 = alloca ptr, align 8
  %7 = alloca ptr, align 8
  %8 = alloca ptr, align 8
  %9 = alloca i32, align 4
  %10 = alloca i16, align 2
  store ptr %0, ptr %6, align 8
  store ptr %1, ptr %7, align 8
  store ptr %2, ptr %8, align 8
  store i32 %3, ptr %9, align 4
  store i16 %4, ptr %10, align 2
  %11 = load i16, ptr %10, align 2
  %12 = sext i16 %11 to i32
  %13 = icmp sge i32 %12, 3
  br i1 %13, label %14, label %25

14:                                               ; preds = %5
  %15 = load ptr, ptr %8, align 8
  %16 = load i32, ptr @hf_kafka_transactional_id, align 4
  %17 = load ptr, ptr %6, align 8
  %18 = load ptr, ptr %7, align 8
  %19 = load i32, ptr %9, align 4
  %20 = load i16, ptr %10, align 2
  %21 = sext i16 %20 to i32
  %22 = icmp sge i32 %21, 9
  %23 = zext i1 %22 to i32
  %24 = call i32 @dissect_kafka_string(ptr noundef %15, i32 noundef %16, ptr noundef %17, ptr noundef %18, i32 noundef %19, i32 noundef %23, ptr noundef null, ptr noundef null)
  store i32 %24, ptr %9, align 4
  br label %25

25:                                               ; preds = %14, %5
  %26 = load ptr, ptr %8, align 8
  %27 = load i32, ptr @hf_kafka_required_acks, align 4
  %28 = load ptr, ptr %6, align 8
  %29 = load i32, ptr %9, align 4
  %30 = call ptr @proto_tree_add_item(ptr noundef %26, i32 noundef %27, ptr noundef %28, i32 noundef %29, i32 noundef 2, i32 noundef 0)
  %31 = load i32, ptr %9, align 4
  %32 = add i32 %31, 2
  store i32 %32, ptr %9, align 4
  %33 = load ptr, ptr %8, align 8
  %34 = load i32, ptr @hf_kafka_timeout, align 4
  %35 = load ptr, ptr %6, align 8
  %36 = load i32, ptr %9, align 4
  %37 = call ptr @proto_tree_add_item(ptr noundef %33, i32 noundef %34, ptr noundef %35, i32 noundef %36, i32 noundef 4, i32 noundef 0)
  %38 = load i32, ptr %9, align 4
  %39 = add i32 %38, 4
  store i32 %39, ptr %9, align 4
  %40 = load ptr, ptr %8, align 8
  %41 = load ptr, ptr %6, align 8
  %42 = load ptr, ptr %7, align 8
  %43 = load i32, ptr %9, align 4
  %44 = load i16, ptr %10, align 2
  %45 = sext i16 %44 to i32
  %46 = icmp sge i32 %45, 9
  %47 = zext i1 %46 to i32
  %48 = load i16, ptr %10, align 2
  %49 = call i32 @dissect_kafka_array(ptr noundef %40, ptr noundef %41, ptr noundef %42, i32 noundef %43, i32 noundef %47, i16 noundef signext %48, ptr noundef @dissect_kafka_produce_request_topic, ptr noundef null)
  store i32 %49, ptr %9, align 4
  %50 = load i16, ptr %10, align 2
  %51 = sext i16 %50 to i32
  %52 = icmp sge i32 %51, 9
  br i1 %52, label %53, label %59

53:                                               ; preds = %25
  %54 = load ptr, ptr %6, align 8
  %55 = load ptr, ptr %7, align 8
  %56 = load ptr, ptr %8, align 8
  %57 = load i32, ptr %9, align 4
  %58 = call i32 @dissect_kafka_tagged_fields(ptr noundef %54, ptr noundef %55, ptr noundef %56, i32 noundef %57, i16 noundef signext 0)
  store i32 %58, ptr %9, align 4
  br label %59

59:                                               ; preds = %53, %25
  %60 = load i32, ptr %9, align 4
  ret i32 %60
}