; Function Attrs: null_pointer_is_valid sspstrong uwtable
define internal fastcc i32 @dissect_kafka_produce_request(ptr noundef %0, ptr noundef %1, ptr noundef %2, i32 noundef %3, i16 noundef signext %4) unnamed_addr #0 {
  %6 = icmp sgt i16 %4, 2
  br i1 %6, label %7, label %12

7:                                                ; preds = %5
  %8 = load i32, ptr @hf_kafka_transactional_id, align 4
  %9 = icmp samesign ugt i16 %4, 8
  %10 = zext i1 %9 to i32
  %11 = tail call fastcc i32 @dissect_kafka_string(ptr noundef %2, i32 noundef %8, ptr noundef %0, ptr noundef %1, i32 noundef %3, i32 noundef %10, ptr noundef null, ptr noundef null)
  br label %12

12:                                               ; preds = %7, %5
  %.0 = phi i32 [ %11, %7 ], [ %3, %5 ]
  %13 = load i32, ptr @hf_kafka_required_acks, align 4
  %14 = tail call ptr @proto_tree_add_item(ptr noundef %2, i32 noundef %13, ptr noundef %0, i32 noundef %.0, i32 noundef 2, i32 noundef 0)
  %15 = add i32 %.0, 2
  %16 = load i32, ptr @hf_kafka_timeout, align 4
  %17 = tail call ptr @proto_tree_add_item(ptr noundef %2, i32 noundef %16, ptr noundef %0, i32 noundef %15, i32 noundef 4, i32 noundef 0)
  %18 = add i32 %.0, 6
  %19 = icmp sgt i16 %4, 8
  %20 = zext i1 %19 to i32
  %21 = tail call fastcc i32 @dissect_kafka_array(ptr noundef %2, ptr noundef %0, ptr noundef %1, i32 noundef %18, i32 noundef %20, i16 noundef signext %4, ptr noundef nonnull @dissect_kafka_produce_request_topic, ptr noundef null)
  br i1 %19, label %22, label %24

22:                                               ; preds = %12
  %23 = tail call fastcc i32 @dissect_kafka_tagged_fields(ptr noundef %0, ptr noundef %1, ptr noundef %2, i32 noundef %21)
  br label %24

24:                                               ; preds = %22, %12
  %.1 = phi i32 [ %23, %22 ], [ %21, %12 ]
  ret i32 %.1
}